target datalayout = "e-m:e-p270:32:32-p271:32:32-p272:64:64-i64:64-i128:128-f80:128-n8:16:32:64-S128"
target triple = "x86_64-pc-linux-gnu"

%struct.AVFilterContext = type { ptr, ptr, ptr, ptr, ptr, i32, ptr, ptr, i32, ptr, ptr, i32, i32, ptr, ptr, ptr, ptr, i32, ptr, i32, i32 }
%struct.HWDownloadContext = type { ptr, ptr, ptr }
%struct.AVFilterFormatsConfig = type { ptr, ptr, ptr, ptr, ptr }
%struct.AVFilterLink = type { ptr, ptr, ptr, ptr, i32, i32, i32, i32, %struct.AVRational, i32, i32, i32, %struct.AVChannelLayout, %struct.AVRational, ptr, i32, %struct.AVFilterFormatsConfig, %struct.AVFilterFormatsConfig }
%struct.AVChannelLayout = type { i32, i32, %union.anon.1, ptr }
%union.anon.1 = type { i64 }
%struct.AVRational = type { i32, i32 }

@.str.7 = private unnamed_addr constant [48 x i8] c"Invalid output format %s for hwframe download.\0A\00", align 1

; Function Attrs: nounwind uwtable
define internal i32 @hwdownload_config_output(ptr noundef %0) #1 {
  %2 = alloca i32, align 4
  %3 = alloca ptr, align 8
  %4 = alloca ptr, align 8
  %5 = alloca ptr, align 8
  %6 = alloca ptr, align 8
  %7 = alloca ptr, align 8
  %8 = alloca i32, align 4
  %9 = alloca i32, align 4
  %10 = alloca i32, align 4
  %11 = alloca i32, align 4
  store ptr %0, ptr %3, align 8, !tbaa !29
  call void @llvm.lifetime.start.p0(i64 8, ptr %4) #5
  %12 = load ptr, ptr %3, align 8, !tbaa !29
  %13 = getelementptr inbounds nuw %struct.AVFilterLink, ptr %12, i32 0, i32 0
  %14 = load ptr, ptr %13, align 8, !tbaa !68
  store ptr %14, ptr %4, align 8, !tbaa !4
  call void @llvm.lifetime.start.p0(i64 8, ptr %5) #5
  %15 = load ptr, ptr %4, align 8, !tbaa !4
  %16 = getelementptr inbounds nuw %struct.AVFilterContext, ptr %15, i32 0, i32 4
  %17 = load ptr, ptr %16, align 8, !tbaa !69
  %18 = getelementptr inbounds ptr, ptr %17, i64 0
  %19 = load ptr, ptr %18, align 8, !tbaa !29
  store ptr %19, ptr %5, align 8, !tbaa !29
  call void @llvm.lifetime.start.p0(i64 8, ptr %6) #5
  %20 = load ptr, ptr %4, align 8, !tbaa !4
  %21 = getelementptr inbounds nuw %struct.AVFilterContext, ptr %20, i32 0, i32 9
  %22 = load ptr, ptr %21, align 8, !tbaa !9
  store ptr %22, ptr %6, align 8, !tbaa !22
  call void @llvm.lifetime.start.p0(i64 8, ptr %7) #5
  call void @llvm.lifetime.start.p0(i64 4, ptr %8) #5
  call void @llvm.lifetime.start.p0(i64 4, ptr %9) #5
  call void @llvm.lifetime.start.p0(i64 4, ptr %10) #5
  %23 = load ptr, ptr %6, align 8, !tbaa !22
  %24 = getelementptr inbounds nuw %struct.HWDownloadContext, ptr %23, i32 0, i32 1
  %25 = load ptr, ptr %24, align 8, !tbaa !42
  %26 = icmp ne ptr %25, null
  br i1 %26, label %28, label %27

27:                                               ; preds = %1
  store i32 -22, ptr %2, align 4
  store i32 1, ptr %11, align 4
  br label %80

28:                                               ; preds = %1
  %29 = load ptr, ptr %6, align 8, !tbaa !22
  %30 = getelementptr inbounds nuw %struct.HWDownloadContext, ptr %29, i32 0, i32 1
  %31 = load ptr, ptr %30, align 8, !tbaa !42
  %32 = call i32 @av_hwframe_transfer_get_formats(ptr noundef %31, i32 noundef 0, ptr noundef %7, i32 noundef 0)
  store i32 %32, ptr %8, align 4, !tbaa !28
  %33 = load i32, ptr %8, align 4, !tbaa !28
  %34 = icmp slt i32 %33, 0
  br i1 %34, label %35, label %37

35:                                               ; preds = %28
  %36 = load i32, ptr %8, align 4, !tbaa !28
  store i32 %36, ptr %2, align 4
  store i32 1, ptr %11, align 4
  br label %80

37:                                               ; preds = %28
  store i32 0, ptr %10, align 4, !tbaa !28
  store i32 0, ptr %9, align 4, !tbaa !28
  br label %38

38:                                               ; preds = %57, %37
  %39 = load ptr, ptr %7, align 8, !tbaa !70
  %40 = load i32, ptr %9, align 4, !tbaa !28
  %41 = sext i32 %40 to i64
  %42 = getelementptr inbounds i32, ptr %39, i64 %41
  %43 = load i32, ptr %42, align 4, !tbaa !28
  %44 = icmp ne i32 %43, -1
  br i1 %44, label %45, label %60

45:                                               ; preds = %38
  %46 = load ptr, ptr %7, align 8, !tbaa !70
  %47 = load i32, ptr %9, align 4, !tbaa !28
  %48 = sext i32 %47 to i64
  %49 = getelementptr inbounds i32, ptr %46, i64 %48
  %50 = load i32, ptr %49, align 4, !tbaa !28
  %51 = load ptr, ptr %3, align 8, !tbaa !29
  %52 = getelementptr inbounds nuw %struct.AVFilterLink, ptr %51, i32 0, i32 5
  %53 = load i32, ptr %52, align 4, !tbaa !71
  %54 = icmp eq i32 %50, %53
  br i1 %54, label %55, label %56

55:                                               ; preds = %45
  store i32 1, ptr %10, align 4, !tbaa !28
  br label %60

56:                                               ; preds = %45
  br label %57

57:                                               ; preds = %56
  %58 = load i32, ptr %9, align 4, !tbaa !28
  %59 = add nsw i32 %58, 1
  store i32 %59, ptr %9, align 4, !tbaa !28
  br label %38, !llvm.loop !72

60:                                               ; preds = %55, %38
  call void @av_freep(ptr noundef %7)
  %61 = load i32, ptr %10, align 4, !tbaa !28
  %62 = icmp ne i32 %61, 0
  br i1 %62, label %69, label %63

63:                                               ; preds = %60
  %64 = load ptr, ptr %6, align 8, !tbaa !22
  %65 = load ptr, ptr %3, align 8, !tbaa !29
  %66 = getelementptr inbounds nuw %struct.AVFilterLink, ptr %65, i32 0, i32 5
  %67 = load i32, ptr %66, align 4, !tbaa !71
  %68 = call ptr @av_get_pix_fmt_name(i32 noundef %67)
  call void (ptr, i32, ptr, ...) @av_log(ptr noundef %64, i32 noundef 16, ptr noundef @.str.7, ptr noundef %68)
  store i32 -22, ptr %2, align 4
  store i32 1, ptr %11, align 4
  br label %80

69:                                               ; preds = %60
  %70 = load ptr, ptr %5, align 8, !tbaa !29
  %71 = getelementptr inbounds nuw %struct.AVFilterLink, ptr %70, i32 0, i32 6
  %72 = load i32, ptr %71, align 8, !tbaa !60
  %73 = load ptr, ptr %3, align 8, !tbaa !29
  %74 = getelementptr inbounds nuw %struct.AVFilterLink, ptr %73, i32 0, i32 6
  store i32 %72, ptr %74, align 8, !tbaa !60
  %75 = load ptr, ptr %5, align 8, !tbaa !29
  %76 = getelementptr inbounds nuw %struct.AVFilterLink, ptr %75, i32 0, i32 7
  %77 = load i32, ptr %76, align 4, !tbaa !62
  %78 = load ptr, ptr %3, align 8, !tbaa !29
  %79 = getelementptr inbounds nuw %struct.AVFilterLink, ptr %78, i32 0, i32 7
  store i32 %77, ptr %79, align 4, !tbaa !62
  store i32 0, ptr %2, align 4
  store i32 1, ptr %11, align 4
  br label %80

80:                                               ; preds = %69, %63, %35, %27
  call void @llvm.lifetime.end.p0(i64 4, ptr %10) #5
  call void @llvm.lifetime.end.p0(i64 4, ptr %9) #5
  call void @llvm.lifetime.end.p0(i64 4, ptr %8) #5
  call void @llvm.lifetime.end.p0(i64 8, ptr %7) #5
  call void @llvm.lifetime.end.p0(i64 8, ptr %6) #5
  call void @llvm.lifetime.end.p0(i64 8, ptr %5) #5
  call void @llvm.lifetime.end.p0(i64 8, ptr %4) #5
  %81 = load i32, ptr %2, align 4
  ret i32 %81
}