; Function Attrs: nounwind uwtable
define internal range(i32 -2147483648, 1) i32 @hwdownload_config_output(ptr noundef captures(none) %0) #1 {
  %2 = alloca ptr, align 8
  %3 = load ptr, ptr %0, align 8, !tbaa !60
  %4 = getelementptr inbounds nuw i8, ptr %3, i64 32
  %5 = load ptr, ptr %4, align 8, !tbaa !61
  %6 = load ptr, ptr %5, align 8, !tbaa !34
  %7 = getelementptr inbounds nuw i8, ptr %3, i64 72
  %8 = load ptr, ptr %7, align 8, !tbaa !4
  call void @llvm.lifetime.start.p0(i64 8, ptr nonnull %2) #4
  %9 = getelementptr inbounds nuw i8, ptr %8, i64 8
  %10 = load ptr, ptr %9, align 8, !tbaa !36
  %.not = icmp eq ptr %10, null
  br i1 %.not, label %34, label %11

11:                                               ; preds = %1
  %12 = call i32 @av_hwframe_transfer_get_formats(ptr noundef nonnull %10, i32 noundef 0, ptr noundef nonnull %2, i32 noundef 0) #4
  %13 = icmp slt i32 %12, 0
  br i1 %13, label %34, label %.preheader

.preheader:                                       ; preds = %11
  %14 = load ptr, ptr %2, align 8, !tbaa !62
  %15 = load i32, ptr %14, align 4, !tbaa !63
  %.not2325 = icmp eq i32 %15, -1
  br i1 %.not2325, label %._crit_edge, label %.lr.ph

.lr.ph:                                           ; preds = %.preheader
  %16 = getelementptr inbounds nuw i8, ptr %0, i64 36
  %17 = load i32, ptr %16, align 4, !tbaa !64
  br label %21

18:                                               ; preds = %21
  %indvars.iv.next = add nuw nsw i64 %indvars.iv, 1
  %19 = getelementptr inbounds nuw i32, ptr %14, i64 %indvars.iv.next
  %20 = load i32, ptr %19, align 4, !tbaa !63
  %.not23 = icmp eq i32 %20, -1
  br i1 %.not23, label %._crit_edge, label %21, !llvm.loop !65

21:                                               ; preds = %.lr.ph, %18
  %indvars.iv = phi i64 [ 0, %.lr.ph ], [ %indvars.iv.next, %18 ]
  %22 = phi i32 [ %15, %.lr.ph ], [ %20, %18 ]
  %23 = icmp eq i32 %22, %17
  br i1 %23, label %27, label %18

._crit_edge:                                      ; preds = %18, %.preheader
  call void @av_freep(ptr noundef nonnull %2) #4
  %24 = getelementptr inbounds nuw i8, ptr %0, i64 36
  %25 = load i32, ptr %24, align 4, !tbaa !64
  %26 = call ptr @av_get_pix_fmt_name(i32 noundef %25) #4
  call void (ptr, i32, ptr, ...) @av_log(ptr noundef %8, i32 noundef 16, ptr noundef nonnull @.str.7, ptr noundef %26) #4
  br label %34

27:                                               ; preds = %21
  call void @av_freep(ptr noundef nonnull %2) #4
  %28 = getelementptr inbounds nuw i8, ptr %6, i64 40
  %29 = load i32, ptr %28, align 8, !tbaa !54
  %30 = getelementptr inbounds nuw i8, ptr %0, i64 40
  store i32 %29, ptr %30, align 8, !tbaa !54
  %31 = getelementptr inbounds nuw i8, ptr %6, i64 44
  %32 = load i32, ptr %31, align 4, !tbaa !56
  %33 = getelementptr inbounds nuw i8, ptr %0, i64 44
  store i32 %32, ptr %33, align 4, !tbaa !56
  br label %34

34:                                               ; preds = %11, %1, %27, %._crit_edge
  %.019 = phi i32 [ 0, %27 ], [ -22, %._crit_edge ], [ -22, %1 ], [ %12, %11 ]
  call void @llvm.lifetime.end.p0(i64 8, ptr nonnull %2) #4
  ret i32 %.019
}